target datalayout = "e-m:e-p270:32:32-p271:32:32-p272:64:64-i64:64-i128:128-f80:128-n8:16:32:64-S128"
target triple = "x86_64-pc-linux-gnu"

%"class.std::vector.3" = type { %"struct.std::_Vector_base.4" }
%"struct.std::_Vector_base.4" = type { %"struct.std::_Vector_base<unsigned long, std::allocator<unsigned long>>::_Vector_impl" }
%"struct.std::_Vector_base<unsigned long, std::allocator<unsigned long>>::_Vector_impl" = type { %"struct.std::_Vector_base<unsigned long, std::allocator<unsigned long>>::_Vector_impl_data" }
%"struct.std::_Vector_base<unsigned long, std::allocator<unsigned long>>::_Vector_impl_data" = type { ptr, ptr, ptr }
%"class.std::vector.43" = type { %"struct.std::_Vector_base.44" }
%"struct.std::_Vector_base.44" = type { %"struct.std::_Vector_base<int, std::allocator<int>>::_Vector_impl" }
%"struct.std::_Vector_base<int, std::allocator<int>>::_Vector_impl" = type { %"struct.std::_Vector_base<int, std::allocator<int>>::_Vector_impl_data" }
%"struct.std::_Vector_base<int, std::allocator<int>>::_Vector_impl_data" = type { ptr, ptr, ptr }
%"class.std::__shared_count" = type { ptr }
%"struct.rocksdb::CompressionOptions" = type <{ i32, i32, i32, i32, i32, i32, i8, [7 x i8], i64, i8, [3 x i8], i32, i8, [7 x i8] }>
%"struct.rocksdb::MutableCFOptions" = type { i64, i32, i64, double, i8, i64, i64, i8, i64, %"class.std::shared_ptr.141", double, i8, %"class.std::shared_ptr.165", i64, i64, i32, i32, i32, i64, i64, i32, i64, double, i64, i64, %"class.std::vector.43", %"struct.rocksdb::CompactionOptionsFIFO", %"class.rocksdb::CompactionOptionsUniversal", i64, i64, i8, i64, i64, i8, i8, double, double, i64, i32, i8, i64, i8, i8, i8, i8, [4 x i8], %"struct.rocksdb::CompressionOptions", %"struct.rocksdb::CompressionOptions", i8, i8, i32, i8, i8, i64, %"class.std::vector.173", i32, i32, i32, %"class.std::vector.3" }
%"class.std::shared_ptr.141" = type { %"class.std::__shared_ptr.142" }
%"class.std::__shared_ptr.142" = type { ptr, %"class.std::__shared_count" }
%"class.std::shared_ptr.165" = type { %"class.std::__shared_ptr.166" }
%"class.std::__shared_ptr.166" = type { ptr, %"class.std::__shared_count" }
%"struct.rocksdb::CompactionOptionsFIFO" = type { i64, i8, i64, %"class.std::vector.168" }
%"class.std::vector.168" = type { %"struct.std::_Vector_base.169" }
%"struct.std::_Vector_base.169" = type { %"struct.std::_Vector_base<rocksdb::FileTemperatureAge, std::allocator<rocksdb::FileTemperatureAge>>::_Vector_impl" }
%"struct.std::_Vector_base<rocksdb::FileTemperatureAge, std::allocator<rocksdb::FileTemperatureAge>>::_Vector_impl" = type { %"struct.std::_Vector_base<rocksdb::FileTemperatureAge, std::allocator<rocksdb::FileTemperatureAge>>::_Vector_impl_data" }
%"struct.std::_Vector_base<rocksdb::FileTemperatureAge, std::allocator<rocksdb::FileTemperatureAge>>::_Vector_impl_data" = type { ptr, ptr, ptr }
%"class.rocksdb::CompactionOptionsUniversal" = type <{ i32, i32, i32, i32, i32, i32, i32, i8, i8, [2 x i8] }>
%"class.std::vector.173" = type { %"struct.std::_Vector_base.174" }
%"struct.std::_Vector_base.174" = type { %"struct.std::_Vector_base<rocksdb::CompressionType, std::allocator<rocksdb::CompressionType>>::_Vector_impl" }
%"struct.std::_Vector_base<rocksdb::CompressionType, std::allocator<rocksdb::CompressionType>>::_Vector_impl" = type { %"struct.std::_Vector_base<rocksdb::CompressionType, std::allocator<rocksdb::CompressionType>>::_Vector_impl_data" }
%"struct.std::_Vector_base<rocksdb::CompressionType, std::allocator<rocksdb::CompressionType>>::_Vector_impl_data" = type { ptr, ptr, ptr }

; Function Attrs: mustprogress uwtable
define noundef ptr @_ZN7rocksdb20FIFOCompactionPicker14PickCompactionERKNSt7__cxx1112basic_stringIcSt11char_traitsIcESaIcEEERKNS_16MutableCFOptionsERKNS_16MutableDBOptionsERKSt6vectorImSaImEEPKNS_15SnapshotCheckerEPNS_18VersionStorageInfoEPNS_9LogBufferE(ptr noundef nonnull align 8 dereferenceable(128) %0, ptr noundef nonnull align 8 dereferenceable(32) %1, ptr noundef nonnull align 8 dereferenceable(608) %2, ptr noundef nonnull align 8 dereferenceable(144) %3, ptr noundef nonnull align 8 dereferenceable(24) %4, ptr noundef %5, ptr noundef %6, ptr noundef %7) unnamed_addr #5 align 2 {
  %9 = alloca ptr, align 8
  %10 = alloca ptr, align 8
  %11 = alloca ptr, align 8
  %12 = alloca ptr, align 8
  %13 = alloca ptr, align 8
  %14 = alloca ptr, align 8
  %15 = alloca ptr, align 8
  %16 = alloca ptr, align 8
  %17 = alloca ptr, align 8
  store ptr %0, ptr %9, align 8, !tbaa !46
  store ptr %1, ptr %10, align 8, !tbaa !25
  store ptr %2, ptr %11, align 8, !tbaa !53
  store ptr %3, ptr %12, align 8, !tbaa !55
  store ptr %4, ptr %13, align 8, !tbaa !343
  store ptr %5, ptr %14, align 8, !tbaa !345
  store ptr %6, ptr %15, align 8, !tbaa !48
  store ptr %7, ptr %16, align 8, !tbaa !57
  %18 = load ptr, ptr %9, align 8
  call void @llvm.lifetime.start.p0(i64 8, ptr %17) #4
  store ptr null, ptr %17, align 8, !tbaa !206
  %19 = load ptr, ptr %11, align 8, !tbaa !53
  %20 = getelementptr inbounds nuw %"struct.rocksdb::MutableCFOptions", ptr %19, i32 0, i32 23
  %21 = load i64, ptr %20, align 8, !tbaa !147
  %22 = icmp ugt i64 %21, 0
  br i1 %22, label %23, label %30

23:                                               ; preds = %8
  %24 = load ptr, ptr %10, align 8, !tbaa !25
  %25 = load ptr, ptr %11, align 8, !tbaa !53
  %26 = load ptr, ptr %12, align 8, !tbaa !55
  %27 = load ptr, ptr %15, align 8, !tbaa !48
  %28 = load ptr, ptr %16, align 8, !tbaa !57
  %29 = call noundef ptr @_ZN7rocksdb20FIFOCompactionPicker17PickTTLCompactionERKNSt7__cxx1112basic_stringIcSt11char_traitsIcESaIcEEERKNS_16MutableCFOptionsERKNS_16MutableDBOptionsEPNS_18VersionStorageInfoEPNS_9LogBufferE(ptr noundef nonnull align 8 dereferenceable(128) %18, ptr noundef nonnull align 8 dereferenceable(32) %24, ptr noundef nonnull align 8 dereferenceable(608) %25, ptr noundef nonnull align 8 dereferenceable(144) %26, ptr noundef %27, ptr noundef %28)
  store ptr %29, ptr %17, align 8, !tbaa !206
  br label %30

30:                                               ; preds = %23, %8
  %31 = load ptr, ptr %17, align 8, !tbaa !206
  %32 = icmp eq ptr %31, null
  br i1 %32, label %33, label %40

33:                                               ; preds = %30
  %34 = load ptr, ptr %10, align 8, !tbaa !25
  %35 = load ptr, ptr %11, align 8, !tbaa !53
  %36 = load ptr, ptr %12, align 8, !tbaa !55
  %37 = load ptr, ptr %15, align 8, !tbaa !48
  %38 = load ptr, ptr %16, align 8, !tbaa !57
  %39 = call noundef ptr @_ZN7rocksdb20FIFOCompactionPicker18PickSizeCompactionERKNSt7__cxx1112basic_stringIcSt11char_traitsIcESaIcEEERKNS_16MutableCFOptionsERKNS_16MutableDBOptionsEPNS_18VersionStorageInfoEPNS_9LogBufferE(ptr noundef nonnull align 8 dereferenceable(128) %18, ptr noundef nonnull align 8 dereferenceable(32) %34, ptr noundef nonnull align 8 dereferenceable(608) %35, ptr noundef nonnull align 8 dereferenceable(144) %36, ptr noundef %37, ptr noundef %38)
  store ptr %39, ptr %17, align 8, !tbaa !206
  br label %40

40:                                               ; preds = %33, %30
  %41 = load ptr, ptr %17, align 8, !tbaa !206
  %42 = icmp eq ptr %41, null
  br i1 %42, label %43, label %50

43:                                               ; preds = %40
  %44 = load ptr, ptr %10, align 8, !tbaa !25
  %45 = load ptr, ptr %11, align 8, !tbaa !53
  %46 = load ptr, ptr %12, align 8, !tbaa !55
  %47 = load ptr, ptr %15, align 8, !tbaa !48
  %48 = load ptr, ptr %16, align 8, !tbaa !57
  %49 = call noundef ptr @_ZNK7rocksdb20FIFOCompactionPicker31PickTemperatureChangeCompactionERKNSt7__cxx1112basic_stringIcSt11char_traitsIcESaIcEEERKNS_16MutableCFOptionsERKNS_16MutableDBOptionsEPNS_18VersionStorageInfoEPNS_9LogBufferE(ptr noundef nonnull align 8 dereferenceable(128) %18, ptr noundef nonnull align 8 dereferenceable(32) %44, ptr noundef nonnull align 8 dereferenceable(608) %45, ptr noundef nonnull align 8 dereferenceable(144) %46, ptr noundef %47, ptr noundef %48)
  store ptr %49, ptr %17, align 8, !tbaa !206
  br label %50

50:                                               ; preds = %43, %40
  %51 = load ptr, ptr %17, align 8, !tbaa !206
  call void @_ZN7rocksdb16CompactionPicker18RegisterCompactionEPNS_10CompactionE(ptr noundef nonnull align 8 dereferenceable(128) %18, ptr noundef %51)
  %52 = load ptr, ptr %17, align 8, !tbaa !206
  call void @llvm.lifetime.end.p0(i64 8, ptr %17) #4
  ret ptr %52
}