; Function Attrs: mustprogress uwtable
define noundef ptr @_ZN7rocksdb20FIFOCompactionPicker14PickCompactionERKNSt7__cxx1112basic_stringIcSt11char_traitsIcESaIcEEERKNS_16MutableCFOptionsERKNS_16MutableDBOptionsERKSt6vectorImSaImEEPKNS_15SnapshotCheckerEPNS_18VersionStorageInfoEPNS_9LogBufferE(ptr noundef nonnull align 8 dereferenceable(128) %0, ptr noundef nonnull readonly align 8 captures(none) dereferenceable(32) %1, ptr noundef nonnull align 8 dereferenceable(608) %2, ptr noundef nonnull align 8 dereferenceable(144) %3, ptr nonnull readnone align 8 captures(none) %4, ptr readnone captures(none) %5, ptr noundef %6, ptr noundef %7) unnamed_addr #3 align 2 {
  %9 = getelementptr inbounds nuw i8, ptr %2, i64 192
  %10 = load i64, ptr %9, align 8, !tbaa !213
  %.not = icmp eq i64 %10, 0
  br i1 %.not, label %.thread, label %11

11:                                               ; preds = %8
  %12 = tail call noundef ptr @_ZN7rocksdb20FIFOCompactionPicker17PickTTLCompactionERKNSt7__cxx1112basic_stringIcSt11char_traitsIcESaIcEEERKNS_16MutableCFOptionsERKNS_16MutableDBOptionsEPNS_18VersionStorageInfoEPNS_9LogBufferE(ptr noundef nonnull align 8 dereferenceable(128) %0, ptr noundef nonnull align 8 dereferenceable(32) %1, ptr noundef nonnull align 8 dereferenceable(608) %2, ptr noundef nonnull align 8 dereferenceable(144) %3, ptr noundef %6, ptr noundef %7)
  %13 = icmp eq ptr %12, null
  br i1 %13, label %.thread, label %.thread22

.thread:                                          ; preds = %8, %11
  %14 = tail call noundef ptr @_ZN7rocksdb20FIFOCompactionPicker18PickSizeCompactionERKNSt7__cxx1112basic_stringIcSt11char_traitsIcESaIcEEERKNS_16MutableCFOptionsERKNS_16MutableDBOptionsEPNS_18VersionStorageInfoEPNS_9LogBufferE(ptr noundef nonnull align 8 dereferenceable(128) %0, ptr noundef nonnull align 8 dereferenceable(32) %1, ptr noundef nonnull align 8 dereferenceable(608) %2, ptr noundef nonnull align 8 dereferenceable(144) %3, ptr noundef %6, ptr noundef %7)
  %15 = icmp eq ptr %14, null
  br i1 %15, label %16, label %.thread22

16:                                               ; preds = %.thread
  %17 = tail call noundef ptr @_ZNK7rocksdb20FIFOCompactionPicker31PickTemperatureChangeCompactionERKNSt7__cxx1112basic_stringIcSt11char_traitsIcESaIcEEERKNS_16MutableCFOptionsERKNS_16MutableDBOptionsEPNS_18VersionStorageInfoEPNS_9LogBufferE(ptr noundef nonnull align 8 dereferenceable(128) %0, ptr noundef nonnull align 8 dereferenceable(32) %1, ptr noundef nonnull align 8 dereferenceable(608) %2, ptr noundef nonnull align 8 dereferenceable(144) %3, ptr noundef %6, ptr noundef %7)
  br label %.thread22

.thread22:                                        ; preds = %11, %16, %.thread
  %.2 = phi ptr [ %17, %16 ], [ %14, %.thread ], [ %12, %11 ]
  tail call void @_ZN7rocksdb16CompactionPicker18RegisterCompactionEPNS_10CompactionE(ptr noundef nonnull align 8 dereferenceable(128) %0, ptr noundef %.2)
  ret ptr %.2
}